target datalayout = "e-m:e-p270:32:32-p271:32:32-p272:64:64-i64:64-i128:128-f80:128-n8:16:32:64-S128"
target triple = "x86_64-pc-linux-gnu"

%struct.H5FL_fac_gc_list_t = type { i64, ptr }
%struct.H5FL_fac_gc_node_t = type { ptr, ptr }
%struct.H5FL_fac_head_t = type { i8, i32, i32, i64, ptr, ptr }
%struct.H5FL_fac_node_t = type { ptr }

@H5FL_init_g = global i8 0, align 1
@H5_H5FL_fac_head_t_reg_free_list = global { i8, [3 x i8], i32, i32, [4 x i8], ptr, i64, ptr } { i8 0, [3 x i8] zeroinitializer, i32 0, i32 0, [4 x i8] zeroinitializer, ptr @.str.1, i64 40, ptr null }, align 8
@H5_libterm_g = external global i8, align 1
@.str.2 = private unnamed_addr constant [98 x i8] c"generated/home/dtcxzyw/WorkSpace/Projects/compilers/llvm-opt-benchmark/bench/hdf5/hdf5/src/H5FL.c\00", align 1
@H5E_RESOURCE_g = external global i64, align 8
@H5E_CANTGC_g = external global i64, align 8
@H5FL_fac_gc_head = internal global %struct.H5FL_fac_gc_list_t zeroinitializer, align 8
@__func__.H5FL_fac_term = private unnamed_addr constant [14 x i8] c"H5FL_fac_term\00", align 1
@.str.12 = private unnamed_addr constant [37 x i8] c"garbage collection of factory failed\00", align 1
@H5E_CANTRELEASE_g = external global i64, align 8
@.str.13 = private unnamed_addr constant [36 x i8] c"factory still has objects allocated\00", align 1
@H5_H5FL_fac_gc_node_t_reg_free_list = internal global { i8, [3 x i8], i32, i32, [4 x i8], ptr, i64, ptr } { i8 0, [3 x i8] zeroinitializer, i32 0, i32 0, [4 x i8] zeroinitializer, ptr @.str.21, i64 16, ptr null }, align 8

; Function Attrs: nounwind uwtable
define internal i32 @H5FL__fac_gc_list(ptr noundef %0) #0 {
  %2 = alloca ptr, align 8
  %3 = alloca ptr, align 8
  %4 = alloca ptr, align 8
  store ptr %0, ptr %2, align 8, !tbaa !122
  call void @llvm.lifetime.start.p0(i64 8, ptr %3) #9
  %5 = load i8, ptr @H5FL_init_g, align 1, !tbaa !7, !range !9, !noundef !10
  %6 = trunc i8 %5 to i1
  br i1 %6, label %11, label %7

7:                                                ; preds = %1
  %8 = load i8, ptr @H5_libterm_g, align 1, !tbaa !7, !range !9, !noundef !10
  %9 = trunc i8 %8 to i1
  %10 = xor i1 %9, true
  br label %11

11:                                               ; preds = %7, %1
  %12 = phi i1 [ true, %1 ], [ %10, %7 ]
  %13 = xor i1 %12, true
  %14 = xor i1 %13, true
  %15 = zext i1 %14 to i32
  %16 = sext i32 %15 to i64
  %17 = call i64 @llvm.expect.i64(i64 %16, i64 1)
  %18 = icmp ne i64 %17, 0
  br i1 %18, label %19, label %54

19:                                               ; preds = %11
  %20 = load ptr, ptr %2, align 8, !tbaa !122
  %21 = getelementptr inbounds nuw %struct.H5FL_fac_head_t, ptr %20, i32 0, i32 4
  %22 = load ptr, ptr %21, align 8, !tbaa !125
  store ptr %22, ptr %3, align 8, !tbaa !130
  br label %23

23:                                               ; preds = %26, %19
  %24 = load ptr, ptr %3, align 8, !tbaa !130
  %25 = icmp ne ptr %24, null
  br i1 %25, label %26, label %32

26:                                               ; preds = %23
  call void @llvm.lifetime.start.p0(i64 8, ptr %4) #9
  %27 = load ptr, ptr %3, align 8, !tbaa !130
  %28 = getelementptr inbounds nuw %struct.H5FL_fac_node_t, ptr %27, i32 0, i32 0
  %29 = load ptr, ptr %28, align 8, !tbaa !126
  store ptr %29, ptr %4, align 8, !tbaa !130
  %30 = load ptr, ptr %3, align 8, !tbaa !130
  call void @free(ptr noundef %30) #9
  %31 = load ptr, ptr %4, align 8, !tbaa !130
  store ptr %31, ptr %3, align 8, !tbaa !130
  call void @llvm.lifetime.end.p0(i64 8, ptr %4) #9
  br label %23, !llvm.loop !131

32:                                               ; preds = %23
  %33 = load ptr, ptr %2, align 8, !tbaa !122
  %34 = getelementptr inbounds nuw %struct.H5FL_fac_head_t, ptr %33, i32 0, i32 2
  %35 = load i32, ptr %34, align 8, !tbaa !128
  %36 = load ptr, ptr %2, align 8, !tbaa !122
  %37 = getelementptr inbounds nuw %struct.H5FL_fac_head_t, ptr %36, i32 0, i32 1
  %38 = load i32, ptr %37, align 4, !tbaa !132
  %39 = sub i32 %38, %35
  store i32 %39, ptr %37, align 4, !tbaa !132
  %40 = load ptr, ptr %2, align 8, !tbaa !122
  %41 = getelementptr inbounds nuw %struct.H5FL_fac_head_t, ptr %40, i32 0, i32 2
  %42 = load i32, ptr %41, align 8, !tbaa !128
  %43 = zext i32 %42 to i64
  %44 = load ptr, ptr %2, align 8, !tbaa !122
  %45 = getelementptr inbounds nuw %struct.H5FL_fac_head_t, ptr %44, i32 0, i32 3
  %46 = load i64, ptr %45, align 8, !tbaa !123
  %47 = mul i64 %43, %46
  %48 = load i64, ptr @H5FL_fac_gc_head, align 8, !tbaa !129
  %49 = sub i64 %48, %47
  store i64 %49, ptr @H5FL_fac_gc_head, align 8, !tbaa !129
  %50 = load ptr, ptr %2, align 8, !tbaa !122
  %51 = getelementptr inbounds nuw %struct.H5FL_fac_head_t, ptr %50, i32 0, i32 4
  store ptr null, ptr %51, align 8, !tbaa !125
  %52 = load ptr, ptr %2, align 8, !tbaa !122
  %53 = getelementptr inbounds nuw %struct.H5FL_fac_head_t, ptr %52, i32 0, i32 2
  store i32 0, ptr %53, align 8, !tbaa !128
  br label %54

54:                                               ; preds = %32, %11
  call void @llvm.lifetime.end.p0(i64 8, ptr %3) #9
  ret i32 0
}

; Function Attrs: nounwind uwtable
define i32 @H5FL_fac_term(ptr noundef %0) #0 {
  %2 = alloca ptr, align 8
  %3 = alloca ptr, align 8
  %4 = alloca i32, align 4
  %5 = alloca i8, align 1
  %6 = alloca ptr, align 8
  store ptr %0, ptr %2, align 8, !tbaa !122
  call void @llvm.lifetime.start.p0(i64 8, ptr %3) #9
  call void @llvm.lifetime.start.p0(i64 4, ptr %4) #9
  store i32 0, ptr %4, align 4, !tbaa !3
  call void @llvm.lifetime.start.p0(i64 1, ptr %5) #9
  store i8 0, ptr %5, align 1, !tbaa !7
  %7 = load i8, ptr @H5FL_init_g, align 1, !tbaa !7, !range !9, !noundef !10
  %8 = trunc i8 %7 to i1
  br i1 %8, label %13, label %9

9:                                                ; preds = %1
  %10 = load i8, ptr @H5_libterm_g, align 1, !tbaa !7, !range !9, !noundef !10
  %11 = trunc i8 %10 to i1
  %12 = xor i1 %11, true
  br label %13

13:                                               ; preds = %9, %1
  %14 = phi i1 [ true, %1 ], [ %12, %9 ]
  %15 = xor i1 %14, true
  %16 = xor i1 %15, true
  %17 = zext i1 %16 to i32
  %18 = sext i32 %17 to i64
  %19 = call i64 @llvm.expect.i64(i64 %18, i64 1)
  %20 = icmp ne i64 %19, 0
  br i1 %20, label %21, label %119

21:                                               ; preds = %13
  %22 = load ptr, ptr %2, align 8, !tbaa !122
  %23 = call i32 @H5FL__fac_gc_list(ptr noundef %22)
  %24 = icmp slt i32 %23, 0
  br i1 %24, label %25, label %44

25:                                               ; preds = %21
  br label %26

26:                                               ; preds = %25
  br label %27

27:                                               ; preds = %26
  br label %28

28:                                               ; preds = %27
  %29 = load i64, ptr @H5E_RESOURCE_g, align 8, !tbaa !11
  %30 = load i64, ptr @H5E_CANTGC_g, align 8, !tbaa !11
  %31 = call i32 (ptr, ptr, i32, i64, i64, ptr, ...) @H5E_printf_stack(ptr noundef @.str.2, ptr noundef @__func__.H5FL_fac_term, i32 noundef 1988, i64 noundef %29, i64 noundef %30, ptr noundef @.str.12)
  br label %32

32:                                               ; preds = %28
  br label %33

33:                                               ; preds = %32
  store i8 1, ptr %5, align 1, !tbaa !7
  %34 = load i8, ptr %5, align 1, !tbaa !7, !range !9, !noundef !10
  %35 = trunc i8 %34 to i1
  %36 = zext i1 %35 to i8
  store i8 %36, ptr %5, align 1, !tbaa !7
  br label %37

37:                                               ; preds = %33
  br label %38

38:                                               ; preds = %37
  br label %39

39:                                               ; preds = %38
  store i32 -1, ptr %4, align 4, !tbaa !3
  br label %118

40:                                               ; No predecessors!
  br label %41

41:                                               ; preds = %40
  br label %42

42:                                               ; preds = %41
  br label %43

43:                                               ; preds = %42
  br label %44

44:                                               ; preds = %43, %21
  %45 = load ptr, ptr %2, align 8, !tbaa !122
  %46 = getelementptr inbounds nuw %struct.H5FL_fac_head_t, ptr %45, i32 0, i32 1
  %47 = load i32, ptr %46, align 4, !tbaa !132
  %48 = icmp ugt i32 %47, 0
  br i1 %48, label %49, label %68

49:                                               ; preds = %44
  br label %50

50:                                               ; preds = %49
  br label %51

51:                                               ; preds = %50
  br label %52

52:                                               ; preds = %51
  %53 = load i64, ptr @H5E_RESOURCE_g, align 8, !tbaa !11
  %54 = load i64, ptr @H5E_CANTRELEASE_g, align 8, !tbaa !11
  %55 = call i32 (ptr, ptr, i32, i64, i64, ptr, ...) @H5E_printf_stack(ptr noundef @.str.2, ptr noundef @__func__.H5FL_fac_term, i32 noundef 1992, i64 noundef %53, i64 noundef %54, ptr noundef @.str.13)
  br label %56

56:                                               ; preds = %52
  br label %57

57:                                               ; preds = %56
  store i8 1, ptr %5, align 1, !tbaa !7
  %58 = load i8, ptr %5, align 1, !tbaa !7, !range !9, !noundef !10
  %59 = trunc i8 %58 to i1
  %60 = zext i1 %59 to i8
  store i8 %60, ptr %5, align 1, !tbaa !7
  br label %61

61:                                               ; preds = %57
  br label %62

62:                                               ; preds = %61
  br label %63

63:                                               ; preds = %62
  store i32 -1, ptr %4, align 4, !tbaa !3
  br label %118

64:                                               ; No predecessors!
  br label %65

65:                                               ; preds = %64
  br label %66

66:                                               ; preds = %65
  br label %67

67:                                               ; preds = %66
  br label %68

68:                                               ; preds = %67, %44
  %69 = load ptr, ptr %2, align 8, !tbaa !122
  %70 = getelementptr inbounds nuw %struct.H5FL_fac_head_t, ptr %69, i32 0, i32 5
  %71 = load ptr, ptr %70, align 8, !tbaa !124
  %72 = icmp ne ptr %71, null
  br i1 %72, label %73, label %100

73:                                               ; preds = %68
  call void @llvm.lifetime.start.p0(i64 8, ptr %6) #9
  %74 = load ptr, ptr %2, align 8, !tbaa !122
  %75 = getelementptr inbounds nuw %struct.H5FL_fac_head_t, ptr %74, i32 0, i32 5
  %76 = load ptr, ptr %75, align 8, !tbaa !124
  store ptr %76, ptr %6, align 8, !tbaa !35
  %77 = load ptr, ptr %6, align 8, !tbaa !35
  %78 = getelementptr inbounds nuw %struct.H5FL_fac_gc_node_t, ptr %77, i32 0, i32 1
  %79 = load ptr, ptr %78, align 8, !tbaa !32
  %80 = getelementptr inbounds nuw %struct.H5FL_fac_gc_node_t, ptr %79, i32 0, i32 1
  %81 = load ptr, ptr %80, align 8, !tbaa !32
  store ptr %81, ptr %3, align 8, !tbaa !35
  %82 = load ptr, ptr %6, align 8, !tbaa !35
  %83 = getelementptr inbounds nuw %struct.H5FL_fac_gc_node_t, ptr %82, i32 0, i32 1
  %84 = load ptr, ptr %83, align 8, !tbaa !32
  %85 = call ptr @H5FL_reg_free(ptr noundef @H5_H5FL_fac_gc_node_t_reg_free_list, ptr noundef %84)
  %86 = load ptr, ptr %6, align 8, !tbaa !35
  %87 = getelementptr inbounds nuw %struct.H5FL_fac_gc_node_t, ptr %86, i32 0, i32 1
  store ptr %85, ptr %87, align 8, !tbaa !32
  %88 = load ptr, ptr %3, align 8, !tbaa !35
  %89 = load ptr, ptr %6, align 8, !tbaa !35
  %90 = getelementptr inbounds nuw %struct.H5FL_fac_gc_node_t, ptr %89, i32 0, i32 1
  store ptr %88, ptr %90, align 8, !tbaa !32
  %91 = load ptr, ptr %3, align 8, !tbaa !35
  %92 = icmp ne ptr %91, null
  br i1 %92, label %93, label %99

93:                                               ; preds = %73
  %94 = load ptr, ptr %6, align 8, !tbaa !35
  %95 = load ptr, ptr %3, align 8, !tbaa !35
  %96 = getelementptr inbounds nuw %struct.H5FL_fac_gc_node_t, ptr %95, i32 0, i32 0
  %97 = load ptr, ptr %96, align 8, !tbaa !36
  %98 = getelementptr inbounds nuw %struct.H5FL_fac_head_t, ptr %97, i32 0, i32 5
  store ptr %94, ptr %98, align 8, !tbaa !124
  br label %99

99:                                               ; preds = %93, %73
  call void @llvm.lifetime.end.p0(i64 8, ptr %6) #9
  br label %115

100:                                              ; preds = %68
  %101 = load ptr, ptr getelementptr inbounds nuw (%struct.H5FL_fac_gc_list_t, ptr @H5FL_fac_gc_head, i32 0, i32 1), align 8, !tbaa !29
  %102 = getelementptr inbounds nuw %struct.H5FL_fac_gc_node_t, ptr %101, i32 0, i32 1
  %103 = load ptr, ptr %102, align 8, !tbaa !32
  store ptr %103, ptr %3, align 8, !tbaa !35
  %104 = load ptr, ptr getelementptr inbounds nuw (%struct.H5FL_fac_gc_list_t, ptr @H5FL_fac_gc_head, i32 0, i32 1), align 8, !tbaa !29
  %105 = call ptr @H5FL_reg_free(ptr noundef @H5_H5FL_fac_gc_node_t_reg_free_list, ptr noundef %104)
  store ptr %105, ptr getelementptr inbounds nuw (%struct.H5FL_fac_gc_list_t, ptr @H5FL_fac_gc_head, i32 0, i32 1), align 8, !tbaa !29
  %106 = load ptr, ptr %3, align 8, !tbaa !35
  store ptr %106, ptr getelementptr inbounds nuw (%struct.H5FL_fac_gc_list_t, ptr @H5FL_fac_gc_head, i32 0, i32 1), align 8, !tbaa !29
  %107 = load ptr, ptr %3, align 8, !tbaa !35
  %108 = icmp ne ptr %107, null
  br i1 %108, label %109, label %114

109:                                              ; preds = %100
  %110 = load ptr, ptr %3, align 8, !tbaa !35
  %111 = getelementptr inbounds nuw %struct.H5FL_fac_gc_node_t, ptr %110, i32 0, i32 0
  %112 = load ptr, ptr %111, align 8, !tbaa !36
  %113 = getelementptr inbounds nuw %struct.H5FL_fac_head_t, ptr %112, i32 0, i32 5
  store ptr null, ptr %113, align 8, !tbaa !124
  br label %114

114:                                              ; preds = %109, %100
  br label %115

115:                                              ; preds = %114, %99
  %116 = load ptr, ptr %2, align 8, !tbaa !122
  %117 = call ptr @H5FL_reg_free(ptr noundef @H5_H5FL_fac_head_t_reg_free_list, ptr noundef %116)
  store ptr %117, ptr %2, align 8, !tbaa !122
  br label %118

118:                                              ; preds = %115, %63, %39
  br label %119

119:                                              ; preds = %118, %13
  %120 = load i32, ptr %4, align 4, !tbaa !3
  call void @llvm.lifetime.end.p0(i64 1, ptr %5) #9
  call void @llvm.lifetime.end.p0(i64 4, ptr %4) #9
  call void @llvm.lifetime.end.p0(i64 8, ptr %3) #9
  ret i32 %120
}