; Function Attrs: nounwind uwtable
define range(i32 -1, 1) i32 @H5FL_fac_term(ptr noundef %0) local_unnamed_addr #0 {
  %2 = load i8, ptr @H5FL_init_g, align 1, !tbaa !3, !range !7, !noundef !8
  %3 = trunc nuw i8 %2 to i1
  %4 = load i8, ptr @H5_libterm_g, align 1, !range !7
  %5 = trunc nuw i8 %4 to i1
  %6 = xor i1 %5, true
  %7 = select i1 %3, i1 true, i1 %6
  br i1 %7, label %8, label %45, !prof !15

8:                                                ; preds = %1
  %9 = getelementptr inbounds nuw i8, ptr %0, i64 24
  %10 = load ptr, ptr %9, align 8, !tbaa !76
  %.not11.i = icmp eq ptr %10, null
  br i1 %.not11.i, label %H5FL__fac_gc_list.exit, label %.lr.ph.i

.lr.ph.i:                                         ; preds = %8, %.lr.ph.i
  %.012.i = phi ptr [ %11, %.lr.ph.i ], [ %10, %8 ]
  %11 = load ptr, ptr %.012.i, align 8, !tbaa !77
  tail call void @free(ptr noundef nonnull %.012.i) #10
  %.not.i = icmp eq ptr %11, null
  br i1 %.not.i, label %H5FL__fac_gc_list.exit, label %.lr.ph.i, !llvm.loop !79

H5FL__fac_gc_list.exit:                           ; preds = %.lr.ph.i, %8
  %12 = getelementptr inbounds nuw i8, ptr %0, i64 8
  %13 = load i32, ptr %12, align 8, !tbaa !80
  %14 = getelementptr inbounds nuw i8, ptr %0, i64 4
  %15 = load i32, ptr %14, align 4, !tbaa !81
  %16 = sub i32 %15, %13
  store i32 %16, ptr %14, align 4, !tbaa !81
  %17 = zext i32 %13 to i64
  %18 = getelementptr inbounds nuw i8, ptr %0, i64 16
  %19 = load i64, ptr %18, align 8, !tbaa !82
  %20 = mul i64 %19, %17
  %21 = load i64, ptr @H5FL_fac_gc_head.0, align 8, !tbaa !83
  %22 = sub i64 %21, %20
  store i64 %22, ptr @H5FL_fac_gc_head.0, align 8, !tbaa !83
  store ptr null, ptr %9, align 8, !tbaa !76
  store i32 0, ptr %12, align 8, !tbaa !80
  %.not = icmp eq i32 %15, %13
  br i1 %.not, label %27, label %23

23:                                               ; preds = %H5FL__fac_gc_list.exit
  %24 = load i64, ptr @H5E_RESOURCE_g, align 8, !tbaa !86
  %25 = load i64, ptr @H5E_CANTRELEASE_g, align 8, !tbaa !86
  %26 = tail call i32 (ptr, ptr, i32, i64, i64, ptr, ...) @H5E_printf_stack(ptr noundef nonnull @.str.2, ptr noundef nonnull @__func__.H5FL_fac_term, i32 noundef 1992, i64 noundef %24, i64 noundef %25, ptr noundef nonnull @.str.13) #10
  br label %45

27:                                               ; preds = %H5FL__fac_gc_list.exit
  %28 = getelementptr inbounds nuw i8, ptr %0, i64 32
  %29 = load ptr, ptr %28, align 8, !tbaa !123
  %.not21 = icmp eq ptr %29, null
  br i1 %.not21, label %36, label %30

30:                                               ; preds = %27
  %31 = getelementptr inbounds nuw i8, ptr %29, i64 8
  %32 = load ptr, ptr %31, align 8, !tbaa !28
  %33 = getelementptr inbounds nuw i8, ptr %32, i64 8
  %34 = load ptr, ptr %33, align 8, !tbaa !28
  %35 = tail call ptr @H5FL_reg_free(ptr noundef nonnull @H5_H5FL_fac_gc_node_t_reg_free_list, ptr noundef %32)
  store ptr %34, ptr %31, align 8, !tbaa !28
  %.not23 = icmp eq ptr %34, null
  br i1 %.not23, label %43, label %.sink.split

36:                                               ; preds = %27
  %37 = load ptr, ptr @H5FL_fac_gc_head.1, align 8, !tbaa !36
  %38 = getelementptr inbounds nuw i8, ptr %37, i64 8
  %39 = load ptr, ptr %38, align 8, !tbaa !28
  %40 = tail call ptr @H5FL_reg_free(ptr noundef nonnull @H5_H5FL_fac_gc_node_t_reg_free_list, ptr noundef %37)
  store ptr %39, ptr @H5FL_fac_gc_head.1, align 8, !tbaa !36
  %.not22 = icmp eq ptr %39, null
  br i1 %.not22, label %43, label %.sink.split

.sink.split:                                      ; preds = %36, %30
  %.sink26 = phi ptr [ %34, %30 ], [ %39, %36 ]
  %.sink = phi ptr [ %29, %30 ], [ null, %36 ]
  %41 = load ptr, ptr %.sink26, align 8, !tbaa !32
  %42 = getelementptr inbounds nuw i8, ptr %41, i64 32
  store ptr %.sink, ptr %42, align 8, !tbaa !123
  br label %43

43:                                               ; preds = %.sink.split, %30, %36
  %44 = tail call ptr @H5FL_reg_free(ptr noundef nonnull @H5_H5FL_fac_head_t_reg_free_list, ptr noundef nonnull %0)
  br label %45

45:                                               ; preds = %23, %43, %1
  %.0 = phi i32 [ -1, %23 ], [ 0, %43 ], [ 0, %1 ]
  ret i32 %.0
}